; Function Attrs: nounwind uwtable
define noalias nonnull ptr @l_Lake_GitRepo_getHeadRevision___lambda__1(ptr noundef %0, ptr readnone captures(none) %1, ptr noundef %2, ptr noundef %3) local_unnamed_addr #0 {
  %5 = load ptr, ptr @l_Lake_GitRepo_getHeadRevision___lambda__1___closed__1, align 8, !tbaa !12
  %6 = tail call ptr @lean_string_append(ptr noundef %5, ptr noundef %0) #3
  %7 = load ptr, ptr @l_Lake_GitRepo_getHeadRevision___lambda__1___closed__2, align 8, !tbaa !12
  %8 = tail call ptr @lean_string_append(ptr noundef %6, ptr noundef %7) #3
  tail call void @lean_inc_heartbeat() #3
  %9 = tail call noalias ptr @mi_malloc_small(i64 noundef 24) #3
  %10 = icmp eq ptr %9, null
  br i1 %10, label %11, label %lean_alloc_ctor.exit

11:                                               ; preds = %4
  tail call void @lean_internal_panic_out_of_memory() #4
  unreachable

lean_alloc_ctor.exit:                             ; preds = %4
  %12 = getelementptr inbounds nuw i8, ptr %9, i64 4
  %13 = getelementptr inbounds nuw i8, ptr %9, i64 16
  store i64 3, ptr %13, align 8, !tbaa !4
  store i32 1, ptr %9, align 4, !tbaa !8
  store i32 65560, ptr %12, align 4
  %14 = getelementptr inbounds nuw i8, ptr %9, i64 8
  store ptr %8, ptr %14, align 8, !tbaa !12
  %15 = getelementptr i8, ptr %2, i64 8
  %.val = load i64, ptr %15, align 8, !tbaa !4
  %16 = tail call ptr @lean_array_push(ptr noundef %2, ptr noundef nonnull %9) #3
  tail call void @lean_inc_heartbeat() #3
  %17 = tail call noalias ptr @mi_malloc_small(i64 noundef 24) #3
  %18 = icmp eq ptr %17, null
  br i1 %18, label %19, label %lean_alloc_ctor.exit19

19:                                               ; preds = %lean_alloc_ctor.exit
  tail call void @lean_internal_panic_out_of_memory() #4
  unreachable

lean_alloc_ctor.exit19:                           ; preds = %lean_alloc_ctor.exit
  %20 = shl i64 %.val, 1
  %21 = or disjoint i64 %20, 1
  %22 = inttoptr i64 %21 to ptr
  %23 = getelementptr inbounds nuw i8, ptr %17, i64 4
  store i32 1, ptr %17, align 4, !tbaa !8
  store i32 16908312, ptr %23, align 4
  %24 = getelementptr inbounds nuw i8, ptr %17, i64 8
  store ptr %22, ptr %24, align 8, !tbaa !12
  %25 = getelementptr inbounds nuw i8, ptr %17, i64 16
  store ptr %16, ptr %25, align 8, !tbaa !12
  tail call void @lean_inc_heartbeat() #3
  %26 = tail call noalias ptr @mi_malloc_small(i64 noundef 24) #3
  %27 = icmp eq ptr %26, null
  br i1 %27, label %28, label %lean_alloc_ctor.exit20

28:                                               ; preds = %lean_alloc_ctor.exit19
  tail call void @lean_internal_panic_out_of_memory() #4
  unreachable

lean_alloc_ctor.exit20:                           ; preds = %lean_alloc_ctor.exit19
  %29 = getelementptr inbounds nuw i8, ptr %26, i64 4
  store i32 1, ptr %26, align 4, !tbaa !8
  store i32 131096, ptr %29, align 4
  %30 = getelementptr inbounds nuw i8, ptr %26, i64 8
  store ptr %17, ptr %30, align 8, !tbaa !12
  %31 = getelementptr inbounds nuw i8, ptr %26, i64 16
  store ptr %3, ptr %31, align 8, !tbaa !12
  ret ptr %26
}